target datalayout = "e-m:e-p270:32:32-p271:32:32-p272:64:64-i64:64-i128:128-f80:128-n8:16:32:64-S128"
target triple = "x86_64-pc-linux-gnu"

%struct.Agobj_s = type { %struct.Agtag_s, ptr }
%struct.Agtag_s = type { i32, i64 }
%struct.Agnodeinfo_t = type { %struct.Agrec_s, ptr, ptr, %struct.pointf_s, double, double, %struct.boxf, double, double, double, double, double, ptr, ptr, ptr, i8, i8, i8, i8, i32, i32, i32, ptr, double, i8, i8, ptr, ptr, i8, i64, i8, i8, i8, ptr, ptr, %struct.elist, %struct.elist, %struct.elist, %struct.elist, %struct.elist, ptr, i32, ptr, i32, i32, double, %struct.elist, %struct.elist, %struct.elist, %struct.elist, ptr, i32, i32, i32, [1 x double] }
%struct.Agrec_s = type { ptr, ptr }
%struct.pointf_s = type { double, double }
%struct.boxf = type { %struct.pointf_s, %struct.pointf_s }
%struct.elist = type { ptr, i64 }
%struct.rdata = type { i64, i64, i64, i64, ptr, double, double }
%struct.Agedge_s = type { %struct.Agobj_s, %struct.dtlink_s_, %struct.dtlink_s_, ptr }
%struct.dtlink_s_ = type { ptr, %union.anon }
%union.anon = type { ptr }

; Function Attrs: nounwind uwtable
define internal void @setChildSubtreeSpans(ptr noundef %0, ptr noundef %1) #0 {
  %3 = alloca ptr, align 8
  %4 = alloca ptr, align 8
  %5 = alloca ptr, align 8
  %6 = alloca double, align 8
  %7 = alloca ptr, align 8
  store ptr %0, ptr %3, align 8, !tbaa !3
  store ptr %1, ptr %4, align 8, !tbaa !8
  call void @llvm.lifetime.start.p0(i64 8, ptr %5) #13
  call void @llvm.lifetime.start.p0(i64 8, ptr %6) #13
  %8 = load ptr, ptr %4, align 8, !tbaa !8
  %9 = getelementptr inbounds nuw %struct.Agobj_s, ptr %8, i32 0, i32 1
  %10 = load ptr, ptr %9, align 8, !tbaa !10
  %11 = getelementptr inbounds nuw %struct.Agnodeinfo_t, ptr %10, i32 0, i32 14
  %12 = load ptr, ptr %11, align 8, !tbaa !36
  %13 = getelementptr inbounds nuw %struct.rdata, ptr %12, i32 0, i32 5
  %14 = load double, ptr %13, align 8, !tbaa !51
  %15 = load ptr, ptr %4, align 8, !tbaa !8
  %16 = getelementptr inbounds nuw %struct.Agobj_s, ptr %15, i32 0, i32 1
  %17 = load ptr, ptr %16, align 8, !tbaa !10
  %18 = getelementptr inbounds nuw %struct.Agnodeinfo_t, ptr %17, i32 0, i32 14
  %19 = load ptr, ptr %18, align 8, !tbaa !36
  %20 = getelementptr inbounds nuw %struct.rdata, ptr %19, i32 0, i32 1
  %21 = load i64, ptr %20, align 8, !tbaa !48
  %22 = uitofp i64 %21 to double
  %23 = fdiv double %14, %22
  store double %23, ptr %6, align 8, !tbaa !30
  call void @llvm.lifetime.start.p0(i64 8, ptr %7) #13
  %24 = load ptr, ptr %3, align 8, !tbaa !3
  %25 = load ptr, ptr %4, align 8, !tbaa !8
  %26 = call ptr @agfstedge(ptr noundef %24, ptr noundef %25)
  store ptr %26, ptr %7, align 8, !tbaa !55
  br label %27

27:                                               ; preds = %113, %2
  %28 = load ptr, ptr %7, align 8, !tbaa !55
  %29 = icmp ne ptr %28, null
  br i1 %29, label %31, label %30

30:                                               ; preds = %27
  call void @llvm.lifetime.end.p0(i64 8, ptr %7) #13
  br label %118

31:                                               ; preds = %27
  %32 = load ptr, ptr %7, align 8, !tbaa !55
  %33 = getelementptr inbounds nuw %struct.Agobj_s, ptr %32, i32 0, i32 0
  %34 = load i32, ptr %33, align 8
  %35 = and i32 %34, 3
  %36 = icmp eq i32 %35, 3
  br i1 %36, label %37, label %39

37:                                               ; preds = %31
  %38 = load ptr, ptr %7, align 8, !tbaa !55
  br label %42

39:                                               ; preds = %31
  %40 = load ptr, ptr %7, align 8, !tbaa !55
  %41 = getelementptr inbounds %struct.Agedge_s, ptr %40, i64 1
  br label %42

42:                                               ; preds = %39, %37
  %43 = phi ptr [ %38, %37 ], [ %41, %39 ]
  %44 = getelementptr inbounds nuw %struct.Agedge_s, ptr %43, i32 0, i32 3
  %45 = load ptr, ptr %44, align 8, !tbaa !56
  store ptr %45, ptr %5, align 8, !tbaa !8
  %46 = load ptr, ptr %4, align 8, !tbaa !8
  %47 = icmp eq ptr %45, %46
  br i1 %47, label %48, label %63

48:                                               ; preds = %42
  %49 = load ptr, ptr %7, align 8, !tbaa !55
  %50 = getelementptr inbounds nuw %struct.Agobj_s, ptr %49, i32 0, i32 0
  %51 = load i32, ptr %50, align 8
  %52 = and i32 %51, 3
  %53 = icmp eq i32 %52, 2
  br i1 %53, label %54, label %56

54:                                               ; preds = %48
  %55 = load ptr, ptr %7, align 8, !tbaa !55
  br label %59

56:                                               ; preds = %48
  %57 = load ptr, ptr %7, align 8, !tbaa !55
  %58 = getelementptr inbounds %struct.Agedge_s, ptr %57, i64 -1
  br label %59

59:                                               ; preds = %56, %54
  %60 = phi ptr [ %55, %54 ], [ %58, %56 ]
  %61 = getelementptr inbounds nuw %struct.Agedge_s, ptr %60, i32 0, i32 3
  %62 = load ptr, ptr %61, align 8, !tbaa !56
  store ptr %62, ptr %5, align 8, !tbaa !8
  br label %63

63:                                               ; preds = %59, %42
  %64 = load ptr, ptr %5, align 8, !tbaa !8
  %65 = getelementptr inbounds nuw %struct.Agobj_s, ptr %64, i32 0, i32 1
  %66 = load ptr, ptr %65, align 8, !tbaa !10
  %67 = getelementptr inbounds nuw %struct.Agnodeinfo_t, ptr %66, i32 0, i32 14
  %68 = load ptr, ptr %67, align 8, !tbaa !36
  %69 = getelementptr inbounds nuw %struct.rdata, ptr %68, i32 0, i32 4
  %70 = load ptr, ptr %69, align 8, !tbaa !45
  %71 = load ptr, ptr %4, align 8, !tbaa !8
  %72 = icmp ne ptr %70, %71
  br i1 %72, label %73, label %74

73:                                               ; preds = %63
  br label %113

74:                                               ; preds = %63
  %75 = load ptr, ptr %5, align 8, !tbaa !8
  %76 = getelementptr inbounds nuw %struct.Agobj_s, ptr %75, i32 0, i32 1
  %77 = load ptr, ptr %76, align 8, !tbaa !10
  %78 = getelementptr inbounds nuw %struct.Agnodeinfo_t, ptr %77, i32 0, i32 14
  %79 = load ptr, ptr %78, align 8, !tbaa !36
  %80 = getelementptr inbounds nuw %struct.rdata, ptr %79, i32 0, i32 5
  %81 = load double, ptr %80, align 8, !tbaa !51
  %82 = fcmp une double %81, 0.000000e+00
  br i1 %82, label %83, label %84

83:                                               ; preds = %74
  br label %113

84:                                               ; preds = %74
  %85 = load double, ptr %6, align 8, !tbaa !30
  %86 = load ptr, ptr %5, align 8, !tbaa !8
  %87 = getelementptr inbounds nuw %struct.Agobj_s, ptr %86, i32 0, i32 1
  %88 = load ptr, ptr %87, align 8, !tbaa !10
  %89 = getelementptr inbounds nuw %struct.Agnodeinfo_t, ptr %88, i32 0, i32 14
  %90 = load ptr, ptr %89, align 8, !tbaa !36
  %91 = getelementptr inbounds nuw %struct.rdata, ptr %90, i32 0, i32 1
  %92 = load i64, ptr %91, align 8, !tbaa !48
  %93 = uitofp i64 %92 to double
  %94 = fmul double %85, %93
  %95 = load ptr, ptr %5, align 8, !tbaa !8
  %96 = getelementptr inbounds nuw %struct.Agobj_s, ptr %95, i32 0, i32 1
  %97 = load ptr, ptr %96, align 8, !tbaa !10
  %98 = getelementptr inbounds nuw %struct.Agnodeinfo_t, ptr %97, i32 0, i32 14
  %99 = load ptr, ptr %98, align 8, !tbaa !36
  %100 = getelementptr inbounds nuw %struct.rdata, ptr %99, i32 0, i32 5
  store double %94, ptr %100, align 8, !tbaa !51
  %101 = load ptr, ptr %5, align 8, !tbaa !8
  %102 = getelementptr inbounds nuw %struct.Agobj_s, ptr %101, i32 0, i32 1
  %103 = load ptr, ptr %102, align 8, !tbaa !10
  %104 = getelementptr inbounds nuw %struct.Agnodeinfo_t, ptr %103, i32 0, i32 14
  %105 = load ptr, ptr %104, align 8, !tbaa !36
  %106 = getelementptr inbounds nuw %struct.rdata, ptr %105, i32 0, i32 2
  %107 = load i64, ptr %106, align 8, !tbaa !47
  %108 = icmp ugt i64 %107, 0
  br i1 %108, label %109, label %112

109:                                              ; preds = %84
  %110 = load ptr, ptr %3, align 8, !tbaa !3
  %111 = load ptr, ptr %5, align 8, !tbaa !8
  call void @setChildSubtreeSpans(ptr noundef %110, ptr noundef %111)
  br label %112

112:                                              ; preds = %109, %84
  br label %113

113:                                              ; preds = %112, %83, %73
  %114 = load ptr, ptr %3, align 8, !tbaa !3
  %115 = load ptr, ptr %7, align 8, !tbaa !55
  %116 = load ptr, ptr %4, align 8, !tbaa !8
  %117 = call ptr @agnxtedge(ptr noundef %114, ptr noundef %115, ptr noundef %116)
  store ptr %117, ptr %7, align 8, !tbaa !55
  br label %27, !llvm.loop !76

118:                                              ; preds = %30
  call void @llvm.lifetime.end.p0(i64 8, ptr %6) #13
  call void @llvm.lifetime.end.p0(i64 8, ptr %5) #13
  ret void
}