; Function Attrs: nounwind uwtable
define internal fastcc void @setChildSubtreeSpans(ptr noundef %0, ptr noundef %1) unnamed_addr #0 {
  %3 = getelementptr inbounds nuw i8, ptr %1, i64 16
  %4 = load ptr, ptr %3, align 8, !tbaa !3
  %5 = getelementptr inbounds nuw i8, ptr %4, i64 152
  %6 = load ptr, ptr %5, align 8, !tbaa !28
  %7 = getelementptr inbounds nuw i8, ptr %6, i64 40
  %8 = load double, ptr %7, align 8, !tbaa !54
  %9 = getelementptr inbounds nuw i8, ptr %6, i64 8
  %10 = load i64, ptr %9, align 8, !tbaa !51
  %11 = uitofp i64 %10 to double
  %12 = fdiv double %8, %11
  %13 = tail call ptr @agfstedge(ptr noundef %0, ptr noundef %1) #18
  %.not29 = icmp eq ptr %13, null
  br i1 %.not29, label %._crit_edge, label %.lr.ph

._crit_edge:                                      ; preds = %45, %2
  ret void

.lr.ph:                                           ; preds = %2, %45
  %.030 = phi ptr [ %46, %45 ], [ %13, %2 ]
  %14 = load i32, ptr %.030, align 8
  %15 = and i32 %14, 3
  %16 = icmp eq i32 %15, 3
  %.idx = select i1 %16, i64 0, i64 64
  %17 = getelementptr inbounds nuw i8, ptr %.030, i64 %.idx
  %18 = getelementptr inbounds nuw i8, ptr %17, i64 56
  %19 = load ptr, ptr %18, align 8, !tbaa !32
  %20 = icmp eq ptr %19, %1
  br i1 %20, label %21, label %26

21:                                               ; preds = %.lr.ph
  %22 = icmp eq i32 %15, 2
  %.idx26 = select i1 %22, i64 0, i64 -64
  %23 = getelementptr inbounds i8, ptr %.030, i64 %.idx26
  %24 = getelementptr inbounds nuw i8, ptr %23, i64 56
  %25 = load ptr, ptr %24, align 8, !tbaa !32
  br label %26

26:                                               ; preds = %21, %.lr.ph
  %.024 = phi ptr [ %25, %21 ], [ %19, %.lr.ph ]
  %27 = getelementptr inbounds nuw i8, ptr %.024, i64 16
  %28 = load ptr, ptr %27, align 8, !tbaa !3
  %29 = getelementptr inbounds nuw i8, ptr %28, i64 152
  %30 = load ptr, ptr %29, align 8, !tbaa !28
  %31 = getelementptr inbounds nuw i8, ptr %30, i64 32
  %32 = load ptr, ptr %31, align 8, !tbaa !46
  %.not27 = icmp eq ptr %32, %1
  br i1 %.not27, label %33, label %45

33:                                               ; preds = %26
  %34 = getelementptr inbounds nuw i8, ptr %30, i64 40
  %35 = load double, ptr %34, align 8, !tbaa !54
  %36 = fcmp une double %35, 0.000000e+00
  br i1 %36, label %45, label %37

37:                                               ; preds = %33
  %38 = getelementptr inbounds nuw i8, ptr %30, i64 8
  %39 = load i64, ptr %38, align 8, !tbaa !51
  %40 = uitofp i64 %39 to double
  %41 = fmul double %12, %40
  store double %41, ptr %34, align 8, !tbaa !54
  %42 = getelementptr inbounds nuw i8, ptr %30, i64 16
  %43 = load i64, ptr %42, align 8, !tbaa !47
  %.not28 = icmp eq i64 %43, 0
  br i1 %.not28, label %45, label %44

44:                                               ; preds = %37
  tail call fastcc void @setChildSubtreeSpans(ptr noundef %0, ptr noundef nonnull %.024)
  br label %45

45:                                               ; preds = %37, %44, %33, %26
  %46 = tail call ptr @agnxtedge(ptr noundef %0, ptr noundef nonnull %.030, ptr noundef %1) #18
  %.not = icmp eq ptr %46, null
  br i1 %.not, label %._crit_edge, label %.lr.ph, !llvm.loop !70
}